; Function Attrs: mustprogress nofree norecurse nosync nounwind willreturn memory(argmem: read) uwtable
define noundef nonnull align 8 dereferenceable(32) ptr @_ZN3nix12EvalSettings16getCurrentSystemB5cxx11Ev(ptr noundef nonnull readonly align 8 dereferenceable(2144) %0) local_unnamed_addr #8 align 2 {
_ZSteqIcSt11char_traitsIcESaIcEEbRKNSt7__cxx1112basic_stringIT_T0_T1_EEPKS5_.exit:
  %1 = getelementptr inbounds i8, ptr %0, i64 576
  %2 = getelementptr inbounds i8, ptr %0, i64 584
  %3 = load i64, ptr %2, align 8
  %spec.select7.i.i.i = tail call i64 @llvm.smax.i64(i64 %3, i64 -2147483648)
  %.08.i.i.i = tail call i64 @llvm.smin.i64(i64 %spec.select7.i.i.i, i64 2147483647)
  %4 = and i64 %.08.i.i.i, 4294967295
  %5 = icmp eq i64 %4, 0
  %spec.select = select i1 %5, ptr getelementptr inbounds (%"class.nix::Settings", ptr @_ZN3nix8settingsE, i64 0, i32 23, i32 0, i32 1, i32 0, i32 0), ptr %1
  ret ptr %spec.select
}